target datalayout = "e-m:e-p270:32:32-p271:32:32-p272:64:64-i64:64-i128:128-f80:128-n8:16:32:64-S128"
target triple = "x86_64-pc-linux-gnu"

%"class.nix::PosIdx" = type { i32 }
%"class.std::__shared_count" = type { ptr }
%"class.nix::ref.246" = type { %"class.std::shared_ptr.247" }
%"class.std::shared_ptr.247" = type { %"class.std::__shared_ptr.248" }
%"class.std::__shared_ptr.248" = type { ptr, %"class.std::__shared_count" }
%"struct.std::pair.394" = type <{ ptr, %"class.nix::PosIdx", [4 x i8] }>

@_ZN3nix5noPosE = linkonce_odr global %"class.nix::PosIdx" zeroinitializer, comdat, align 4

; Function Attrs: mustprogress nounwind uwtable
define linkonce_odr noundef ptr @_ZNKSt12__shared_ptrIN3nix10eval_cache10AttrCursorELN9__gnu_cxx12_Lock_policyE2EE3getEv(ptr noundef nonnull align 8 dereferenceable(16) %0) #2 comdat align 2 {
  %2 = alloca ptr, align 8
  store ptr %0, ptr %2, align 8
  %3 = load ptr, ptr %2, align 8
  %4 = getelementptr inbounds %"class.std::__shared_ptr.248", ptr %3, i32 0, i32 0
  %5 = load ptr, ptr %4, align 8
  ret ptr %5
}

; Function Attrs: mustprogress nounwind uwtable
define linkonce_odr noundef ptr @_ZNKSt19__shared_ptr_accessIN3nix10eval_cache10AttrCursorELN9__gnu_cxx12_Lock_policyE2ELb0ELb0EE6_M_getEv(ptr noundef nonnull align 1 dereferenceable(1) %0) #2 comdat align 2 {
  %2 = alloca ptr, align 8
  store ptr %0, ptr %2, align 8
  %3 = load ptr, ptr %2, align 8
  %4 = call noundef ptr @_ZNKSt12__shared_ptrIN3nix10eval_cache10AttrCursorELN9__gnu_cxx12_Lock_policyE2EE3getEv(ptr noundef nonnull align 8 dereferenceable(16) %3) #1
  ret ptr %4
}

; Function Attrs: mustprogress nounwind uwtable
define linkonce_odr noundef nonnull align 8 dereferenceable(184) ptr @_ZNKSt19__shared_ptr_accessIN3nix10eval_cache10AttrCursorELN9__gnu_cxx12_Lock_policyE2ELb0ELb0EEdeEv(ptr noundef nonnull align 1 dereferenceable(1) %0) #2 comdat align 2 {
  %2 = alloca ptr, align 8
  store ptr %0, ptr %2, align 8
  %3 = load ptr, ptr %2, align 8
  br label %4

4:                                                ; preds = %1
  br label %5

5:                                                ; preds = %4
  br label %6

6:                                                ; preds = %5
  %7 = call noundef ptr @_ZNKSt19__shared_ptr_accessIN3nix10eval_cache10AttrCursorELN9__gnu_cxx12_Lock_policyE2ELb0ELb0EE6_M_getEv(ptr noundef nonnull align 1 dereferenceable(1) %3) #1
  ret ptr %7
}

; Function Attrs: mustprogress nounwind uwtable
define linkonce_odr void @_ZNSt4pairIPN3nix5ValueENS0_6PosIdxEEC2IS2_RS3_Qcl16_S_constructibleITL0__TL0_0_EEEEOT_OT0_(ptr noundef nonnull align 8 dereferenceable(12) %0, ptr noundef nonnull align 8 dereferenceable(8) %1, ptr noundef nonnull align 4 dereferenceable(4) %2) unnamed_addr #2 comdat align 2 {
  %4 = alloca ptr, align 8
  %5 = alloca ptr, align 8
  %6 = alloca ptr, align 8
  store ptr %0, ptr %4, align 8
  store ptr %1, ptr %5, align 8
  store ptr %2, ptr %6, align 8
  %7 = load ptr, ptr %4, align 8
  %8 = getelementptr inbounds %"struct.std::pair.394", ptr %7, i32 0, i32 0
  %9 = load ptr, ptr %5, align 8
  %10 = load ptr, ptr %9, align 8
  store ptr %10, ptr %8, align 8
  %11 = getelementptr inbounds %"struct.std::pair.394", ptr %7, i32 0, i32 1
  %12 = load ptr, ptr %6, align 8
  call void @llvm.memcpy.p0.p0.i64(ptr align 8 %11, ptr align 4 %12, i64 4, i1 false)
  ret void
}

; Function Attrs: mustprogress nounwind uwtable
define linkonce_odr noundef ptr @_ZNK3nix3refINS_10eval_cache10AttrCursorEEptEv(ptr noundef nonnull align 8 dereferenceable(16) %0) #2 comdat align 2 {
  %2 = alloca ptr, align 8
  store ptr %0, ptr %2, align 8
  %3 = load ptr, ptr %2, align 8
  %4 = getelementptr inbounds %"class.nix::ref.246", ptr %3, i32 0, i32 0
  %5 = call noundef nonnull align 8 dereferenceable(184) ptr @_ZNKSt19__shared_ptr_accessIN3nix10eval_cache10AttrCursorELN9__gnu_cxx12_Lock_policyE2ELb0ELb0EEdeEv(ptr noundef nonnull align 1 dereferenceable(1) %4) #1
  ret ptr %5
}

; Function Attrs: mustprogress uwtable
define { ptr, i32 } @_ZN3nix16InstallableFlake7toValueERNS_9EvalStateE(ptr noundef nonnull align 8 dereferenceable(296) %0, ptr noundef nonnull align 8 dereferenceable(1248) %1) unnamed_addr #5 align 2 personality ptr @__gxx_personality_v0 {
  %3 = alloca %"struct.std::pair.394", align 8
  %4 = alloca ptr, align 8
  %5 = alloca ptr, align 8
  %6 = alloca ptr, align 8
  %7 = alloca %"class.nix::ref.246", align 8
  %8 = alloca ptr, align 8
  %9 = alloca i32, align 4
  store ptr %0, ptr %4, align 8
  store ptr %1, ptr %5, align 8
  %10 = load ptr, ptr %4, align 8
  %11 = load ptr, ptr %5, align 8
  %12 = load ptr, ptr %10, align 8
  %13 = getelementptr inbounds ptr, ptr %12, i64 7
  %14 = load ptr, ptr %13, align 8
  call void %14(ptr dead_on_unwind writable sret(%"class.nix::ref.246") align 8 %7, ptr noundef nonnull align 8 dereferenceable(24) %10, ptr noundef nonnull align 8 dereferenceable(1248) %11)
  %15 = invoke noundef ptr @_ZNK3nix3refINS_10eval_cache10AttrCursorEEptEv(ptr noundef nonnull align 8 dereferenceable(16) %7)
          to label %16 unwind label %20

16:                                               ; preds = %2
  %17 = invoke noundef nonnull align 8 dereferenceable(24) ptr @_ZN3nix10eval_cache10AttrCursor10forceValueEv(ptr noundef nonnull align 8 dereferenceable(184) %15)
          to label %18 unwind label %20

18:                                               ; preds = %16
  store ptr %17, ptr %6, align 8
  call void @_ZNSt4pairIPN3nix5ValueENS0_6PosIdxEEC2IS2_RS3_Qcl16_S_constructibleITL0__TL0_0_EEEEOT_OT0_(ptr noundef nonnull align 8 dereferenceable(12) %3, ptr noundef nonnull align 8 dereferenceable(8) %6, ptr noundef nonnull align 4 dereferenceable(4) @_ZN3nix5noPosE) #1
  call void @_ZN3nix3refINS_10eval_cache10AttrCursorEED2Ev(ptr noundef nonnull align 8 dereferenceable(16) %7) #1
  %19 = load { ptr, i32 }, ptr %3, align 8
  ret { ptr, i32 } %19

20:                                               ; preds = %16, %2
  %21 = landingpad { ptr, i32 }
          cleanup
  %22 = extractvalue { ptr, i32 } %21, 0
  store ptr %22, ptr %8, align 8
  %23 = extractvalue { ptr, i32 } %21, 1
  store i32 %23, ptr %9, align 4
  call void @_ZN3nix3refINS_10eval_cache10AttrCursorEED2Ev(ptr noundef nonnull align 8 dereferenceable(16) %7) #1
  br label %24

24:                                               ; preds = %20
  %25 = load ptr, ptr %8, align 8
  %26 = load i32, ptr %9, align 4
  %27 = insertvalue { ptr, i32 } poison, ptr %25, 0
  %28 = insertvalue { ptr, i32 } %27, i32 %26, 1
  resume { ptr, i32 } %28
}